target datalayout = "e-m:e-p270:32:32-p271:32:32-p272:64:64-i64:64-i128:128-f80:128-n8:16:32:64-S128"
target triple = "x86_64-pc-linux-gnu"

; Function Attrs: nounwind uwtable
define i32 @pmix_argv_append(ptr noundef nonnull %0, ptr noundef %1, ptr noundef nonnull %2) #0 {
  %4 = alloca i32, align 4
  %5 = alloca ptr, align 8
  %6 = alloca ptr, align 8
  %7 = alloca ptr, align 8
  %8 = alloca i32, align 4
  %9 = alloca i32, align 4
  store ptr %0, ptr %5, align 8, !tbaa !3
  store ptr %1, ptr %6, align 8, !tbaa !8
  store ptr %2, ptr %7, align 8, !tbaa !10
  call void @llvm.lifetime.start.p0(i64 4, ptr %8) #7
  %10 = load ptr, ptr %6, align 8, !tbaa !8
  %11 = load ptr, ptr %7, align 8, !tbaa !10
  %12 = call i32 @PMIx_Argv_append_nosize(ptr noundef %10, ptr noundef %11)
  store i32 %12, ptr %8, align 4, !tbaa !12
  %13 = icmp ne i32 0, %12
  br i1 %13, label %14, label %16

14:                                               ; preds = %3
  %15 = load i32, ptr %8, align 4, !tbaa !12
  store i32 %15, ptr %4, align 4
  store i32 1, ptr %9, align 4
  br label %21

16:                                               ; preds = %3
  %17 = load ptr, ptr %6, align 8, !tbaa !8
  %18 = load ptr, ptr %17, align 8, !tbaa !14
  %19 = call i32 @PMIx_Argv_count(ptr noundef %18)
  %20 = load ptr, ptr %5, align 8, !tbaa !3
  store i32 %19, ptr %20, align 4, !tbaa !12
  store i32 0, ptr %4, align 4
  store i32 1, ptr %9, align 4
  br label %21

21:                                               ; preds = %16, %14
  call void @llvm.lifetime.end.p0(i64 4, ptr %8) #7
  %22 = load i32, ptr %4, align 4
  ret i32 %22
}