; Function Attrs: nounwind uwtable
define i32 @pmix_argv_append(ptr noundef nonnull writeonly captures(none) %0, ptr noundef %1, ptr noundef nonnull %2) local_unnamed_addr #0 {
  %4 = tail call i32 @PMIx_Argv_append_nosize(ptr noundef %1, ptr noundef nonnull %2) #10
  %.not = icmp eq i32 %4, 0
  br i1 %.not, label %5, label %8

5:                                                ; preds = %3
  %6 = load ptr, ptr %1, align 8, !tbaa !3
  %7 = tail call i32 @PMIx_Argv_count(ptr noundef %6) #10
  store i32 %7, ptr %0, align 4, !tbaa !8
  br label %8

8:                                                ; preds = %3, %5
  ret i32 %4
}